; Function Attrs: nounwind uwtable
define hidden noundef zeroext i1 @SDL_GetStringBoolean(ptr noundef %0, i1 noundef zeroext %1) local_unnamed_addr #1 {
  %.not = icmp eq ptr %0, null
  br i1 %.not, label %9, label %3

3:                                                ; preds = %2
  %4 = load i8, ptr %0, align 1
  switch i8 %4, label %5 [
    i8 0, label %9
    i8 48, label %8
  ]

5:                                                ; preds = %3
  %6 = tail call i32 @SDL_strcasecmp_REAL(ptr noundef nonnull %0, ptr noundef nonnull @.str.3) #3
  %7 = icmp eq i32 %6, 0
  br i1 %7, label %8, label %9

8:                                                ; preds = %3, %5
  br label %9

9:                                                ; preds = %5, %3, %2, %8
  %.0 = phi i1 [ false, %8 ], [ %1, %3 ], [ %1, %2 ], [ true, %5 ]
  ret i1 %.0
}